; Function Attrs: nounwind uwtable
define nonnull ptr @l_Lean_Linter_initFn____x40_Lean_Linter_UnusedVariables___hyg_1021____lambda__1___boxed(ptr noundef %0, ptr noundef %1, ptr noundef %2) #1 {
  %4 = load ptr, ptr @l_Lean_Linter_initFn____x40_Lean_Linter_UnusedVariables___hyg_1021____lambda__1___closed__7, align 8, !tbaa !4
  %5 = tail call zeroext i8 @l_Lean_Syntax_Stack_matches(ptr noundef %1, ptr noundef %4) #7
  %6 = ptrtoint ptr %2 to i64
  %7 = and i64 %6, 1
  %.not = icmp eq i64 %7, 0
  br i1 %.not, label %8, label %lean_dec.exit6

8:                                                ; preds = %3
  %9 = load i32, ptr %2, align 4, !tbaa !8
  %10 = icmp sgt i32 %9, 1
  br i1 %10, label %11, label %13, !prof !11

11:                                               ; preds = %8
  %12 = add nsw i32 %9, -1
  store i32 %12, ptr %2, align 4, !tbaa !8
  br label %lean_dec.exit6

13:                                               ; preds = %8
  %.not.i = icmp eq i32 %9, 0
  br i1 %.not.i, label %lean_dec.exit6, label %14

14:                                               ; preds = %13
  tail call void @lean_dec_ref_cold(ptr noundef nonnull %2) #7
  br label %lean_dec.exit6

lean_dec.exit6:                                   ; preds = %14, %13, %11, %3
  %15 = ptrtoint ptr %0 to i64
  %16 = and i64 %15, 1
  %.not9 = icmp eq i64 %16, 0
  br i1 %.not9, label %17, label %lean_dec.exit

17:                                               ; preds = %lean_dec.exit6
  %18 = load i32, ptr %0, align 4, !tbaa !8
  %19 = icmp sgt i32 %18, 1
  br i1 %19, label %20, label %22, !prof !11

20:                                               ; preds = %17
  %21 = add nsw i32 %18, -1
  store i32 %21, ptr %0, align 4, !tbaa !8
  br label %lean_dec.exit

22:                                               ; preds = %17
  %.not.i7 = icmp eq i32 %18, 0
  br i1 %.not.i7, label %lean_dec.exit, label %23

23:                                               ; preds = %22
  tail call void @lean_dec_ref_cold(ptr noundef nonnull %0) #7
  br label %lean_dec.exit

lean_dec.exit:                                    ; preds = %23, %22, %20, %lean_dec.exit6
  %24 = zext i8 %5 to i64
  %25 = shl nuw nsw i64 %24, 1
  %26 = or disjoint i64 %25, 1
  %27 = inttoptr i64 %26 to ptr
  ret ptr %27
}